; Function Attrs: mustprogress uwtable
define internal fastcc void @_ZN6google8protobuf8compiler4java12_GLOBAL__N_123ClassNameWithoutPackageB5cxx11EPKNS0_10DescriptorEb(ptr noalias nonnull align 8 %agg.result, ptr noundef readonly captures(none) %descriptor) unnamed_addr #3 personality ptr @__gxx_personality_v0 {
entry:
  %agg.tmp.i = alloca %"struct.std::__cxx11::basic_string<char>::__sv_wrapper", align 8
  %ref.tmp4 = alloca %"class.std::allocator", align 1
  %all_names_.i = getelementptr inbounds nuw i8, ptr %descriptor, i64 8
  %0 = load ptr, ptr %all_names_.i, align 8
  %arrayidx.i = getelementptr inbounds nuw i8, ptr %0, i64 32
  %call1 = tail call { i64, ptr } @_ZNKSt7__cxx1112basic_stringIcSt11char_traitsIcESaIcEEcvSt17basic_string_viewIcS2_EEv(ptr noundef nonnull align 8 dereferenceable(32) %arrayidx.i) #18
  %1 = extractvalue { i64, ptr } %call1, 0
  %2 = extractvalue { i64, ptr } %call1, 1
  %file_.i = getelementptr inbounds nuw i8, ptr %descriptor, i64 16
  %3 = load ptr, ptr %file_.i, align 8
  %package_.i.i = getelementptr inbounds nuw i8, ptr %3, i64 16
  %4 = load ptr, ptr %package_.i.i, align 8
  %call1.i = tail call noundef zeroext i1 @_ZNKSt7__cxx1112basic_stringIcSt11char_traitsIcESaIcEE5emptyEv(ptr noundef nonnull align 8 dereferenceable(32) %4) #18
  br i1 %call1.i, label %_ZN6google8protobuf8compiler4java12_GLOBAL__N_116StripPackageNameESt17basic_string_viewIcSt11char_traitsIcEEPKNS0_14FileDescriptorE.exit, label %if.else.i

if.else.i:                                        ; preds = %entry
  %5 = load ptr, ptr %package_.i.i, align 8
  %call3.i = tail call noundef i64 @_ZNKSt7__cxx1112basic_stringIcSt11char_traitsIcESaIcEE4sizeEv(ptr noundef nonnull align 8 dereferenceable(32) %5) #18
  %add.i = add i64 %call3.i, 1
  %cmp.i.i.i = icmp ugt i64 %add.i, %1
  br i1 %cmp.i.i.i, label %if.then.i.i.i, label %_ZNKSt17basic_string_viewIcSt11char_traitsIcEE6substrEmm.exit.i

if.then.i.i.i:                                    ; preds = %if.else.i
  tail call void (ptr, ...) @_ZSt24__throw_out_of_range_fmtPKcz(ptr noundef nonnull @.str.10, ptr noundef nonnull @.str.9, i64 noundef %add.i, i64 noundef %1) #19
  unreachable

_ZNKSt17basic_string_viewIcSt11char_traitsIcEE6substrEmm.exit.i: ; preds = %if.else.i
  %sub.i.i = sub nuw i64 %1, %add.i
  %add.ptr.i.i = getelementptr inbounds i8, ptr %2, i64 %add.i
  br label %_ZN6google8protobuf8compiler4java12_GLOBAL__N_116StripPackageNameESt17basic_string_viewIcSt11char_traitsIcEEPKNS0_14FileDescriptorE.exit

_ZN6google8protobuf8compiler4java12_GLOBAL__N_116StripPackageNameESt17basic_string_viewIcSt11char_traitsIcEEPKNS0_14FileDescriptorE.exit: ; preds = %entry, %_ZNKSt17basic_string_viewIcSt11char_traitsIcEE6substrEmm.exit.i
  %full_name.coerce0.pn.i = phi i64 [ %sub.i.i, %_ZNKSt17basic_string_viewIcSt11char_traitsIcEE6substrEmm.exit.i ], [ %1, %entry ]
  %full_name.coerce1.pn.i = phi ptr [ %add.ptr.i.i, %_ZNKSt17basic_string_viewIcSt11char_traitsIcEE6substrEmm.exit.i ], [ %2, %entry ]
  call void @_ZNSaIcEC1Ev(ptr noundef nonnull align 1 dereferenceable(1) %ref.tmp4) #18
  call void @llvm.lifetime.start.p0(i64 16, ptr nonnull %agg.tmp.i)
  %call.i = call { i64, ptr } @_ZNSt7__cxx1112basic_stringIcSt11char_traitsIcESaIcEE17_S_to_string_viewESt17basic_string_viewIcS2_E(i64 %full_name.coerce0.pn.i, ptr %full_name.coerce1.pn.i) #18
  %6 = extractvalue { i64, ptr } %call.i, 0
  %7 = extractvalue { i64, ptr } %call.i, 1
  call void @_ZNSt7__cxx1112basic_stringIcSt11char_traitsIcESaIcEE12__sv_wrapperC1ESt17basic_string_viewIcS2_E(ptr noundef nonnull align 8 dereferenceable(16) %agg.tmp.i, i64 %6, ptr %7) #18
  %8 = load i64, ptr %agg.tmp.i, align 8
  %9 = getelementptr inbounds nuw i8, ptr %agg.tmp.i, i64 8
  %10 = load ptr, ptr %9, align 8
  invoke void @_ZNSt7__cxx1112basic_stringIcSt11char_traitsIcESaIcEEC2ENS4_12__sv_wrapperERKS3_(ptr noundef nonnull align 8 dereferenceable(32) %agg.result, i64 %8, ptr %10, ptr noundef nonnull align 1 dereferenceable(1) %ref.tmp4)
          to label %invoke.cont unwind label %lpad

invoke.cont:                                      ; preds = %_ZN6google8protobuf8compiler4java12_GLOBAL__N_116StripPackageNameESt17basic_string_viewIcSt11char_traitsIcEEPKNS0_14FileDescriptorE.exit
  call void @llvm.lifetime.end.p0(i64 16, ptr nonnull %agg.tmp.i)
  call void @_ZNSaIcED1Ev(ptr noundef nonnull align 1 dereferenceable(1) %ref.tmp4) #18
  ret void

lpad:                                             ; preds = %_ZN6google8protobuf8compiler4java12_GLOBAL__N_116StripPackageNameESt17basic_string_viewIcSt11char_traitsIcEEPKNS0_14FileDescriptorE.exit
  %11 = landingpad { ptr, i32 }
          cleanup
  call void @_ZNSaIcED1Ev(ptr noundef nonnull align 1 dereferenceable(1) %ref.tmp4) #18
  resume { ptr, i32 } %11
}